target datalayout = "e-m:e-p270:32:32-p271:32:32-p272:64:64-i64:64-i128:128-f80:128-n8:16:32:64-S128"
target triple = "x86_64-pc-linux-gnu"

@cpuinfo = external global i32, align 4

; Function Attrs: inlinehint nounwind sspstrong uwtable
define internal i32 @ctpop32(i32 noundef %0) #2 {
  %2 = alloca i32, align 4
  store i32 %0, ptr %2, align 4
  %3 = load i32, ptr %2, align 4
  %4 = call i32 @llvm.ctpop.i32(i32 %3)
  ret i32 %4
}

; Function Attrs: inlinehint nounwind sspstrong uwtable
define internal zeroext i1 @check_size_impl(i32 noundef %0, i32 noundef %1) #2 {
  %3 = alloca i1, align 1
  %4 = alloca i32, align 4
  %5 = alloca i32, align 4
  %6 = alloca i32, align 4
  %7 = alloca i32, align 4
  %8 = alloca i32, align 4
  store i32 %0, ptr %4, align 4
  store i32 %1, ptr %5, align 4
  call void @llvm.lifetime.start.p0(i64 4, ptr %6) #10
  store i32 0, ptr %6, align 4, !annotation !4
  call void @llvm.lifetime.start.p0(i64 4, ptr %7) #10
  store i32 0, ptr %7, align 4, !annotation !4
  %9 = load i32, ptr %4, align 4
  %10 = load i32, ptr %5, align 4
  %11 = icmp ult i32 %9, %10
  br i1 %11, label %12, label %13

12:                                               ; preds = %2
  store i1 false, ptr %3, align 1
  store i32 1, ptr %8, align 4
  br label %43

13:                                               ; preds = %2
  %14 = load i32, ptr %4, align 4
  %15 = load i32, ptr %5, align 4
  %16 = udiv i32 %14, %15
  store i32 %16, ptr %6, align 4
  %17 = load i32, ptr %4, align 4
  %18 = load i32, ptr %5, align 4
  %19 = urem i32 %17, %18
  store i32 %19, ptr %7, align 4
  br label %20

20:                                               ; preds = %13
  %21 = load i32, ptr %7, align 4
  %22 = and i32 %21, 7
  %23 = icmp eq i32 %22, 0
  br i1 %23, label %25, label %24

24:                                               ; preds = %20
  unreachable

25:                                               ; preds = %20
  br label %26

26:                                               ; preds = %25
  br label %27

27:                                               ; preds = %26
  %28 = load i32, ptr %5, align 4
  %29 = icmp ult i32 %28, 16
  br i1 %29, label %30, label %35

30:                                               ; preds = %27
  %31 = load i32, ptr %7, align 4
  %32 = icmp ne i32 %31, 0
  br i1 %32, label %33, label %34

33:                                               ; preds = %30
  store i1 false, ptr %3, align 1
  store i32 1, ptr %8, align 4
  br label %43

34:                                               ; preds = %30
  br label %40

35:                                               ; preds = %27
  %36 = load i32, ptr %7, align 4
  %37 = call i32 @ctpop32(i32 noundef %36)
  %38 = load i32, ptr %6, align 4
  %39 = add i32 %38, %37
  store i32 %39, ptr %6, align 4
  br label %40

40:                                               ; preds = %35, %34
  %41 = load i32, ptr %6, align 4
  %42 = icmp ule i32 %41, 4
  store i1 %42, ptr %3, align 1
  store i32 1, ptr %8, align 4
  br label %43

43:                                               ; preds = %40, %33, %12
  call void @llvm.lifetime.end.p0(i64 4, ptr %7) #10
  call void @llvm.lifetime.end.p0(i64 4, ptr %6) #10
  %44 = load i1, ptr %3, align 1
  ret i1 %44
}

; Function Attrs: nounwind sspstrong uwtable
define internal i32 @choose_vector_type(ptr noundef %0, i32 noundef %1, i32 noundef %2, i1 noundef zeroext %3) #0 {
  %5 = alloca i32, align 4
  %6 = alloca ptr, align 8
  %7 = alloca i32, align 4
  %8 = alloca i32, align 4
  %9 = alloca i8, align 1
  store ptr %0, ptr %6, align 8
  store i32 %1, ptr %7, align 4
  store i32 %2, ptr %8, align 4
  %10 = zext i1 %3 to i8
  store i8 %10, ptr %9, align 1
  %11 = load i32, ptr @cpuinfo, align 4
  %12 = and i32 %11, 1024
  %13 = icmp ne i32 %12, 0
  br i1 %13, label %14, label %46

14:                                               ; preds = %4
  %15 = load i32, ptr %8, align 4
  %16 = call zeroext i1 @check_size_impl(i32 noundef %15, i32 noundef 32)
  br i1 %16, label %17, label %46

17:                                               ; preds = %14
  %18 = load ptr, ptr %6, align 8
  %19 = load i32, ptr %7, align 4
  %20 = call zeroext i1 @tcg_can_emit_vecop_list(ptr noundef %18, i32 noundef 5, i32 noundef %19)
  br i1 %20, label %21, label %46

21:                                               ; preds = %17
  %22 = load i32, ptr %8, align 4
  %23 = and i32 %22, 16
  %24 = icmp ne i32 %23, 0
  br i1 %24, label %25, label %33

25:                                               ; preds = %21
  %26 = load i32, ptr @cpuinfo, align 4
  %27 = and i32 %26, 512
  %28 = icmp ne i32 %27, 0
  br i1 %28, label %29, label %46

29:                                               ; preds = %25
  %30 = load ptr, ptr %6, align 8
  %31 = load i32, ptr %7, align 4
  %32 = call zeroext i1 @tcg_can_emit_vecop_list(ptr noundef %30, i32 noundef 4, i32 noundef %31)
  br i1 %32, label %33, label %46

33:                                               ; preds = %29, %21
  %34 = load i32, ptr %8, align 4
  %35 = and i32 %34, 8
  %36 = icmp ne i32 %35, 0
  br i1 %36, label %37, label %45

37:                                               ; preds = %33
  %38 = load i32, ptr @cpuinfo, align 4
  %39 = and i32 %38, 512
  %40 = icmp ne i32 %39, 0
  br i1 %40, label %41, label %46

41:                                               ; preds = %37
  %42 = load ptr, ptr %6, align 8
  %43 = load i32, ptr %7, align 4
  %44 = call zeroext i1 @tcg_can_emit_vecop_list(ptr noundef %42, i32 noundef 3, i32 noundef %43)
  br i1 %44, label %45, label %46

45:                                               ; preds = %41, %33
  store i32 5, ptr %5, align 4
  br label %86

46:                                               ; preds = %41, %37, %29, %25, %17, %14, %4
  %47 = load i32, ptr @cpuinfo, align 4
  %48 = and i32 %47, 512
  %49 = icmp ne i32 %48, 0
  br i1 %49, label %50, label %70

50:                                               ; preds = %46
  %51 = load i32, ptr %8, align 4
  %52 = call zeroext i1 @check_size_impl(i32 noundef %51, i32 noundef 16)
  br i1 %52, label %53, label %70

53:                                               ; preds = %50
  %54 = load ptr, ptr %6, align 8
  %55 = load i32, ptr %7, align 4
  %56 = call zeroext i1 @tcg_can_emit_vecop_list(ptr noundef %54, i32 noundef 4, i32 noundef %55)
  br i1 %56, label %57, label %70

57:                                               ; preds = %53
  %58 = load i32, ptr %8, align 4
  %59 = and i32 %58, 8
  %60 = icmp ne i32 %59, 0
  br i1 %60, label %61, label %69

61:                                               ; preds = %57
  %62 = load i32, ptr @cpuinfo, align 4
  %63 = and i32 %62, 512
  %64 = icmp ne i32 %63, 0
  br i1 %64, label %65, label %70

65:                                               ; preds = %61
  %66 = load ptr, ptr %6, align 8
  %67 = load i32, ptr %7, align 4
  %68 = call zeroext i1 @tcg_can_emit_vecop_list(ptr noundef %66, i32 noundef 3, i32 noundef %67)
  br i1 %68, label %69, label %70

69:                                               ; preds = %65, %57
  store i32 4, ptr %5, align 4
  br label %86

70:                                               ; preds = %65, %61, %53, %50, %46
  %71 = load i32, ptr @cpuinfo, align 4
  %72 = and i32 %71, 512
  %73 = icmp ne i32 %72, 0
  br i1 %73, label %74, label %85

74:                                               ; preds = %70
  %75 = load i8, ptr %9, align 1, !range !5, !noundef !6
  %76 = trunc i8 %75 to i1
  br i1 %76, label %85, label %77

77:                                               ; preds = %74
  %78 = load i32, ptr %8, align 4
  %79 = call zeroext i1 @check_size_impl(i32 noundef %78, i32 noundef 8)
  br i1 %79, label %80, label %85

80:                                               ; preds = %77
  %81 = load ptr, ptr %6, align 8
  %82 = load i32, ptr %7, align 4
  %83 = call zeroext i1 @tcg_can_emit_vecop_list(ptr noundef %81, i32 noundef 3, i32 noundef %82)
  br i1 %83, label %84, label %85

84:                                               ; preds = %80
  store i32 3, ptr %5, align 4
  br label %86

85:                                               ; preds = %80, %77, %74, %70
  store i32 0, ptr %5, align 4
  br label %86

86:                                               ; preds = %85, %84, %69, %45
  %87 = load i32, ptr %5, align 4
  ret i32 %87
}