; Function Attrs: nounwind sspstrong uwtable
define internal fastcc range(i32 0, 6) i32 @choose_vector_type(ptr noundef %0, i32 noundef %1, i32 noundef %2, i1 noundef zeroext %3) unnamed_addr #2 {
  %5 = load i32, ptr @cpuinfo, align 4
  %6 = and i32 %5, 1024
  %.not = icmp eq i32 %6, 0
  %7 = icmp ult i32 %2, 32
  %or.cond = or i1 %7, %.not
  br i1 %or.cond, label %check_size_impl.exit.thread, label %check_size_impl.exit

check_size_impl.exit:                             ; preds = %4
  %8 = lshr i32 %2, 5
  %9 = and i32 %2, 24
  %10 = and i32 %2, 7
  %11 = icmp eq i32 %10, 0
  tail call void @llvm.assume(i1 %11)
  %12 = tail call range(i32 0, 3) i32 @llvm.ctpop.i32(i32 range(i32 0, 32) %9)
  %13 = add nuw nsw i32 %12, %8
  %14 = icmp samesign ult i32 %13, 5
  br i1 %14, label %15, label %check_size_impl.exit.thread

15:                                               ; preds = %check_size_impl.exit
  %16 = tail call zeroext i1 @tcg_can_emit_vecop_list(ptr noundef %0, i32 noundef 5, i32 noundef %1) #10
  br i1 %16, label %17, label %check_size_impl.exit.thread

17:                                               ; preds = %15
  %18 = and i32 %2, 16
  %.not19 = icmp eq i32 %18, 0
  br i1 %.not19, label %24, label %19

19:                                               ; preds = %17
  %20 = load i32, ptr @cpuinfo, align 4
  %21 = and i32 %20, 512
  %.not20 = icmp eq i32 %21, 0
  br i1 %.not20, label %check_size_impl.exit.thread, label %22

22:                                               ; preds = %19
  %23 = tail call zeroext i1 @tcg_can_emit_vecop_list(ptr noundef %0, i32 noundef 4, i32 noundef %1) #10
  br i1 %23, label %24, label %check_size_impl.exit.thread

24:                                               ; preds = %22, %17
  %25 = and i32 %2, 8
  %.not21 = icmp eq i32 %25, 0
  br i1 %.not21, label %58, label %26

26:                                               ; preds = %24
  %27 = load i32, ptr @cpuinfo, align 4
  %28 = and i32 %27, 512
  %.not22 = icmp eq i32 %28, 0
  br i1 %.not22, label %check_size_impl.exit.thread, label %29

29:                                               ; preds = %26
  %30 = tail call zeroext i1 @tcg_can_emit_vecop_list(ptr noundef %0, i32 noundef 3, i32 noundef %1) #10
  br i1 %30, label %58, label %check_size_impl.exit.thread

check_size_impl.exit.thread:                      ; preds = %29, %26, %22, %19, %15, %check_size_impl.exit, %4
  %31 = load i32, ptr @cpuinfo, align 4
  %32 = and i32 %31, 512
  %.not23 = icmp eq i32 %32, 0
  %33 = icmp ult i32 %2, 16
  %or.cond34 = or i1 %33, %.not23
  br i1 %or.cond34, label %check_size_impl.exit28.thread, label %check_size_impl.exit28

check_size_impl.exit28:                           ; preds = %check_size_impl.exit.thread
  %34 = lshr i32 %2, 4
  %35 = and i32 %2, 7
  %36 = icmp eq i32 %35, 0
  tail call void @llvm.assume(i1 %36)
  %37 = lshr exact i32 %2, 3
  %38 = and i32 %37, 1
  %39 = add nuw nsw i32 %38, %34
  %40 = icmp samesign ult i32 %39, 5
  br i1 %40, label %41, label %check_size_impl.exit28.thread

41:                                               ; preds = %check_size_impl.exit28
  %42 = tail call zeroext i1 @tcg_can_emit_vecop_list(ptr noundef %0, i32 noundef 4, i32 noundef %1) #10
  br i1 %42, label %43, label %check_size_impl.exit28.thread

43:                                               ; preds = %41
  %44 = and i32 %2, 8
  %.not24 = icmp eq i32 %44, 0
  br i1 %.not24, label %58, label %45

45:                                               ; preds = %43
  %46 = load i32, ptr @cpuinfo, align 4
  %47 = and i32 %46, 512
  %.not25 = icmp eq i32 %47, 0
  br i1 %.not25, label %check_size_impl.exit28.thread, label %48

48:                                               ; preds = %45
  %49 = tail call zeroext i1 @tcg_can_emit_vecop_list(ptr noundef %0, i32 noundef 3, i32 noundef %1) #10
  br i1 %49, label %58, label %check_size_impl.exit28.thread

check_size_impl.exit28.thread:                    ; preds = %48, %45, %41, %check_size_impl.exit28, %check_size_impl.exit.thread
  %50 = load i32, ptr @cpuinfo, align 4
  %51 = and i32 %50, 512
  %.not26 = icmp eq i32 %51, 0
  %brmerge = or i1 %3, %.not26
  %52 = icmp ult i32 %2, 8
  %or.cond35 = or i1 %52, %brmerge
  br i1 %or.cond35, label %check_size_impl.exit30.thread, label %check_size_impl.exit30

check_size_impl.exit30:                           ; preds = %check_size_impl.exit28.thread
  %53 = and i32 %2, 7
  %54 = icmp eq i32 %53, 0
  tail call void @llvm.assume(i1 %54)
  %55 = icmp ult i32 %2, 40
  br i1 %55, label %56, label %check_size_impl.exit30.thread

56:                                               ; preds = %check_size_impl.exit30
  %57 = tail call zeroext i1 @tcg_can_emit_vecop_list(ptr noundef %0, i32 noundef 3, i32 noundef %1) #10
  br i1 %57, label %58, label %check_size_impl.exit30.thread

check_size_impl.exit30.thread:                    ; preds = %check_size_impl.exit28.thread, %56, %check_size_impl.exit30
  br label %58

58:                                               ; preds = %56, %43, %48, %24, %29, %check_size_impl.exit30.thread
  %.0 = phi i32 [ 0, %check_size_impl.exit30.thread ], [ 5, %29 ], [ 5, %24 ], [ 4, %48 ], [ 4, %43 ], [ 3, %56 ]
  ret i32 %.0
}